(dp0
S'vel3d_k_wfp_instrument'
p1
(lp2
S'vel3d_k_eastward_velocity'
p3
aS'vel3d_k_northward_velocity'
p4
aS'vel3d_k_upward_velocity'
p5
aS'vel3d_k_vel0'
p6
aS'vel3d_k_vel1'
p7
aS'vel3d_k_vel2'
p8
aS'lon'
p9
aS'lat'
p10
aS'int_ctd_pressure'
p11
asS'nutnr_j_cspp_instrument_recovered'
p12
(lp13
S'nitrate_concentration'
p14
aS'nutnr_j_cspp_temp_sal_corrected_nitrate'
p15
aS'spectral_channels'
p16
ag9
ag10
ag11
asS'nutnr_b_dcl_dark_conc_instrument_recovered'
p17
(lp18
S'nitrate_concentration'
p19
ag9
ag10
ag11
asS'wavss_a_dcl_non_directional'
p20
(lp21
S'psd_non_directional'
p22
aS'wavss_a_non_directional_frequency'
p23
ag9
ag10
ag11
asS'nutnr_b_dcl_conc_instrument_recovered'
p24
(lp25
S'nitrate_concentration'
p26
ag9
ag10
ag11
asS'pco2w_abc_dcl_instrument_recovered'
p27
(lp28
S'absorbance_ratio_434'
p29
aS'absorbance_ratio_620'
p30
aS'pco2_seawater'
p31
aS'thermistor_raw'
p32
ag9
ag10
ag11
asS'spkir_abj_dcl_instrument'
p33
(lp34
S'channel_array'
p35
aS'spkir_abj_cspp_downwelling_vector'
p36
ag9
ag10
ag11
asS'velpt_ab_dcl_diagnostics'
p37
(lp38
S'velocity_beam1'
p39
aS'velocity_beam2'
p40
aS'velocity_beam3'
p41
aS'velpt_ab_eastward_velocity'
p42
aS'velpt_ab_northward_velocity'
p43
aS'velpt_ab_upward_velocity'
p44
ag9
ag10
ag11
asS'velpt_ab_instrument_recovered'
p45
(lp46
S'eastward_velocity'
p47
aS'northward_velocity'
p48
aS'upward_velocity'
p49
aS'velocity_beam1'
p50
aS'velocity_beam2'
p51
aS'velocity_beam3'
p52
ag9
ag10
ag11
asS'nutnr_b_dcl_dark_full_instrument'
p53
(lp54
S'nitrate_concentration'
p55
ag9
ag10
ag11
asS'adcpt_acfgm_pd0_dcl_instrument'
p56
(lp57
S'adcpt_acfgm_dcl_eastward_earth_seawater_velocity'
p58
aS'adcpt_acfgm_dcl_northward_earth_seawater_velocity'
p59
aS'corrected_echo_intensity_beam1'
p60
aS'corrected_echo_intensity_beam2'
p61
aS'corrected_echo_intensity_beam3'
p62
aS'corrected_echo_intensity_beam4'
p63
aS'earth_error_velocity'
p64
aS'echo_intensity_beam1'
p65
aS'echo_intensity_beam2'
p66
aS'echo_intensity_beam3'
p67
aS'echo_intensity_beam4'
p68
aS'error_velocity'
p69
aS'upward_earth_seawater_velocity'
p70
aS'water_velocity_east'
p71
aS'water_velocity_north'
p72
aS'water_velocity_up'
p73
aS'adcpt_acfgm_dcl_eastward_earth_seawater_velocity'
p74
aS'adcpt_acfgm_dcl_northward_earth_seawater_velocity'
p75
aS'corrected_echo_intensity_beam1'
p76
aS'corrected_echo_intensity_beam2'
p77
aS'corrected_echo_intensity_beam3'
p78
aS'corrected_echo_intensity_beam4'
p79
aS'earth_error_velocity'
p80
aS'echo_intensity_beam1'
p81
aS'echo_intensity_beam2'
p82
aS'echo_intensity_beam3'
p83
aS'echo_intensity_beam4'
p84
aS'error_velocity'
p85
aS'upward_earth_seawater_velocity'
p86
aS'water_velocity_east'
p87
aS'water_velocity_north'
p88
aS'water_velocity_up'
p89
ag9
ag10
ag11
asS'dosta_abcdjm_cspp_instrument'
p90
(lp91
S'calibrated_phase'
p92
aS'dosta_abcdjm_cspp_abs_oxygen'
p93
aS'dosta_abcdjm_cspp_tc_oxygen'
p94
aS'estimated_oxygen_concentration'
p95
ag9
ag10
ag11
asS'ctdmo_ghqr_imodem_instrument'
p96
(lp97
S'conductivity'
p98
aS'ctdmo_practical_salinity'
p99
aS'ctdmo_seawater_conductivity'
p100
aS'ctdmo_seawater_density'
p101
aS'ctdmo_seawater_pressure'
p102
aS'ctdmo_seawater_temperature'
p103
aS'pressure'
p104
aS'temperature'
p105
ag9
ag10
ag11
asS'adcpa_m_glider_recovered'
p106
(lp107
S'adcpa_m_eastward_seawater_velocity'
p108
aS'adcpa_m_echo_intensity_beam1'
p109
aS'adcpa_m_echo_intensity_beam2'
p110
aS'adcpa_m_echo_intensity_beam3'
p111
aS'adcpa_m_echo_intensity_beam4'
p112
aS'adcpa_m_error_velocity'
p113
aS'adcpa_m_northward_seawater_velocity'
p114
aS'adcpa_m_upward_seawater_velocity'
p115
aS'echo_intensity_beam1'
p116
aS'echo_intensity_beam2'
p117
aS'echo_intensity_beam3'
p118
aS'echo_intensity_beam4'
p119
aS'error_velocity'
p120
aS'water_velocity_east'
p121
aS'water_velocity_north'
p122
aS'water_velocity_up'
p123
ag9
ag10
ag11
asS'optaa_sample'
p124
(lp125
S'a_reference_counts'
p126
aS'a_signal_counts'
p127
aS'beam_attenuation'
p128
aS'beam_attenuation_ctdbp_no'
p129
aS'c_reference_counts'
p130
aS'c_signal_counts'
p131
aS'internal_temp_raw'
p132
aS'optical_absorption'
p133
ag9
ag10
ag11
asS'vel3d_k_wfp_stc_instrument'
p134
(lp135
S'vel3d_k_eastward_velocity'
p136
aS'vel3d_k_northward_velocity'
p137
aS'vel3d_k_upward_velocity'
p138
aS'vel3d_k_vel0'
p139
aS'vel3d_k_vel1'
p140
aS'vel3d_k_vel2'
p141
ag9
ag10
ag11
asS'nutnr_b_dcl_dark_full_instrument_recovered'
p142
(lp143
S'nitrate_concentration'
p144
ag9
ag10
ag11
asS'vel3d_l_wfp_instrument'
p145
(lp146
S'vel3d_l_eastward_velocity'
p147
aS'vel3d_l_northward_velocity'
p148
aS'vel3d_l_upward_velocity_ascending'
p149
aS'vel3d_l_upward_velocity_descending'
p150
ag9
ag10
ag11
asS'echo_sounding'
p151
(lp152
S'hpies_bliley_frequency'
p153
aS'hpies_bliley_temperature'
p154
aS'hpies_bliley_temperature_L1'
p155
aS'hpies_e1a'
p156
aS'hpies_e1b'
p157
aS'hpies_e1c'
p158
aS'hpies_e2a'
p159
aS'hpies_e2b'
p160
aS'hpies_e2c'
p161
aS'hpies_pressure'
p162
aS'hpies_pressure_L1'
p163
aS'hpies_temperature'
p164
aS'hpies_travel_time1'
p165
aS'hpies_travel_time1_L1'
p166
aS'hpies_travel_time2'
p167
aS'hpies_travel_time2_L1'
p168
aS'hpies_travel_time3'
p169
aS'hpies_travel_time3_L1'
p170
aS'hpies_travel_time4'
p171
aS'hpies_travel_time4_L1'
p172
ag9
ag10
ag11
asS'velpt_j_cspp_instrument_recovered'
p173
(lp174
S'temperature'
p175
aS'velpt_j_eastward_velocity'
p176
aS'velpt_j_northward_velocity'
p177
aS'velpt_j_upward_velocity'
p178
ag9
ag10
ag11
asS'horizontal_electric_field'
p179
(lp180
S'hpies_e1a'
p181
aS'hpies_e1b'
p182
aS'hpies_e1c'
p183
aS'hpies_e2a'
p184
aS'hpies_e2b'
p185
aS'hpies_e2c'
p186
aS'hpies_eindex'
p187
ag9
ag10
ag11
asS'ctdbp_cdef_dcl_instrument'
p188
(lp189
S'conductivity'
p190
aS'ctdbp_cdef_dcl_ce_density'
p191
aS'pressure'
p192
aS'salinity'
p193
aS'temp'
p194
ag9
ag10
ag11
asS'phsen_abcdef_instrument'
p195
(lp196
S'phsen_abcdef_ph_seawater'
p197
aS'phsen_abcdef_signal_intensity_434'
p198
aS'phsen_abcdef_signal_intensity_578'
p199
aS'phsen_thermistor_temperature'
p200
ag9
ag10
ag11
asS'dpc_flnturtd_instrument'
p201
(lp202
S'chlaflo'
p203
aS'flntu_x_mmp_cds_bback_total'
p204
aS'flntu_x_mmp_cds_fluorometric_chlorophyll_a'
p205
aS'flntu_x_mmp_cds_total_volume_scattering_coefficient'
p206
aS'ntuflo'
p207
ag9
ag10
ag11
asS'phsen_abcdef_dcl_instrument_recovered'
p208
(lp209
S'phsen_abcdef_ph_seawater'
p210
aS'phsen_abcdef_signal_intensity_434'
p211
aS'phsen_abcdef_signal_intensity_578'
p212
aS'phsen_thermistor_temperature'
p213
ag9
ag10
ag11
asS'nutnr_j_cspp_instrument'
p214
(lp215
S'nitrate_concentration'
p216
aS'nutnr_j_cspp_temp_sal_corrected_nitrate'
p217
aS'spectral_channels'
p218
ag9
ag10
ag11
asS'pco2w_abc_instrument_blank'
p219
(lp220
S'absorbance_blank_434'
p221
aS'absorbance_blank_620'
p222
aS'thermistor_raw'
p223
ag9
ag10
ag11
asS'nutnr_b_dcl_full_instrument_recovered'
p224
(lp225
S'nitrate_concentration'
p226
aS'nutnr_b_temp_sal_corrected_nitrate'
p227
aS'spectral_channels'
p228
ag9
ag10
ag11
asS'ctdmo_ghqr_instrument_recovered'
p229
(lp230
S'conductivity'
p231
aS'ctdmo_practical_salinity'
p232
aS'ctdmo_seawater_conductivity'
p233
aS'ctdmo_seawater_density'
p234
aS'ctdmo_seawater_pressure'
p235
aS'ctdmo_seawater_temperature'
p236
aS'pressure'
p237
aS'pressure_temp'
p238
aS'temperature'
p239
ag9
ag10
ag11
asS'botpt_lily_sample'
p240
(lp241
S'compass_direction'
p242
aS'corrected_compass_direction'
p243
aS'lily_x_tilt'
p244
aS'lily_y_tilt'
p245
aS'seafloor_tilt_direction'
p246
aS'seafloor_tilt_magnitude'
p247
ag9
ag10
ag11
asS'adcps_jln_stc_instrument'
p248
(lp249
S'adcps_jln_eastward_seawater_velocity2'
p250
aS'adcps_jln_error_velocity2'
p251
aS'adcps_jln_northward_seawater_velocity2'
p252
aS'adcps_jln_upward_seawater_velocity2'
p253
aS'error_velocity'
p254
aS'water_velocity_east'
p255
aS'water_velocity_north'
p256
aS'water_velocity_up'
p257
aS'adcps_jln_eastward_seawater_velocity2'
p258
aS'adcps_jln_error_velocity2'
p259
aS'adcps_jln_northward_seawater_velocity2'
p260
aS'adcps_jln_upward_seawater_velocity2'
p261
aS'error_velocity'
p262
aS'water_velocity_east'
p263
aS'water_velocity_north'
p264
aS'water_velocity_up'
p265
ag9
ag10
ag11
asS'pco2w_b_sami_data_record_cal'
p266
(lp267
S'pco2w_b_absorbance_blank_434'
p268
aS'pco2w_b_absorbance_blank_620'
p269
aS'thermistor_raw'
p270
ag9
ag10
ag11
asS'parad_m_glider_instrument'
p271
(lp272
S'sci_bsipar_par'
p273
ag9
ag10
ag11
asS'nutnr_b_dcl_dark_conc_instrument'
p274
(lp275
S'nitrate_concentration'
p276
ag9
ag10
ag11
asS'pco2w_a_sami_data_record'
p277
(lp278
S'absorbance_ratio_434'
p279
aS'absorbance_ratio_620'
p280
aS'pco2w_a_absorbance_blank_434'
p281
aS'pco2w_a_absorbance_blank_620'
p282
aS'pco2w_seawater'
p283
aS'pco2w_thermistor_temperature'
p284
aS'thermistor_raw'
p285
ag9
ag10
ag11
asS'dpc_flcdrtd_instrument'
p286
(lp287
S'cdomflo'
p288
aS'flcdr_x_mmp_cds_fluorometric_cdom'
p289
ag9
ag10
ag11
asS'metbk_a_dcl_instrument'
p290
(lp291
S'air_temperature'
p292
aS'barometric_pressure'
p293
aS'eastward_wind_velocity'
p294
aS'longwave_irradiance'
p295
aS'met_barpres'
p296
aS'met_current_direction'
p297
aS'met_current_speed'
p298
aS'met_netlirr'
p299
aS'met_netsirr'
p300
aS'met_rainrte'
p301
aS'met_relwind_direction'
p302
aS'met_relwind_speed'
p303
aS'met_salsurf'
p304
aS'met_spechum'
p305
aS'met_windavg_mag_corr_east'
p306
aS'met_windavg_mag_corr_north'
p307
aS'northward_wind_velocity'
p308
aS'precipitation'
p309
aS'relative_humidity'
p310
aS'sea_surface_conductivity'
p311
aS'sea_surface_temperature'
p312
aS'shortwave_irradiance'
p313
ag9
ag10
ag11
asS'pco2a_a_dcl_instrument_air'
p314
(lp315
S'gas_stream_pressure'
p316
aS'measured_air_co2'
p317
aS'partial_pressure_co2_atm'
p318
aS'pco2_co2flux'
p319
ag9
ag10
ag11
asS'optaa_dj_cspp_instrument'
p320
(lp321
S'a_reference_counts'
p322
aS'a_signal_counts'
p323
aS'c_reference_counts'
p324
aS'c_signal_counts'
p325
aS'internal_temp_raw'
p326
aS'optaa_dj_cspp_beam_attenuation'
p327
aS'optaa_dj_cspp_optical_absorption'
p328
ag9
ag10
ag11
asS'dosta_abcdjm_dcl_instrument_recovered'
p329
(lp330
S'calibrated_phase'
p331
aS'dosta_abcdjm_cspp_tc_oxygen'
p332
aS'dosta_abcdjm_dcl_abs_oxygen'
p333
aS'dosta_abcdjm_dcl_ctdbp_abs_oxygen'
p334
aS'dosta_abcdjm_dcl_metbk_abs_oxygen'
p335
aS'estimated_oxygen_concentration'
p336
aS'estimated_oxygen_saturation'
p337
ag9
ag10
ag11
asS'adcps_jln_sio_mule_instrument'
p338
(lp339
S'adcps_jln_eastward_earth_seawater_velocity'
p340
aS'adcps_jln_northward_earth_seawater_velocity'
p341
aS'earth_error_velocity'
p342
aS'error_velocity'
p343
aS'upward_earth_seawater_velocity'
p344
aS'water_velocity_east'
p345
aS'water_velocity_north'
p346
aS'water_velocity_up'
p347
ag9
ag10
ag11
asS'flord_l_wfp_instrument_recovered'
p348
(lp349
S'flort_k_total_volume_scattering_coefficient'
p350
aS'flort_kn_bback_total'
p351
aS'fluorometric_chlorophyll_a'
p352
aS'raw_signal_beta'
p353
aS'raw_signal_chl'
p354
ag9
ag10
ag11
asS'nutnr_j_cspp_dark_instrument_recovered'
p355
(lp356
S'nitrate_concentration'
p357
ag9
ag10
ag11
asS'presf_abc_dcl_tide_measurement'
p358
(lp359
S'abs_seafloor_pressure'
p360
aS'absolute_pressure'
p361
ag9
ag10
ag11
asS'vel3d_cd_dcl_velocity_data'
p362
(lp363
S'turbulent_velocity_east'
p364
aS'turbulent_velocity_north'
p365
aS'turbulent_velocity_vertical'
p366
aS'vel3d_c_eastward_turbulent_velocity'
p367
aS'vel3d_c_northward_turbulent_velocity'
p368
aS'vel3d_c_upward_turbulent_velocity'
p369
ag9
ag10
ag11
asS'vel3d_b_sample'
p370
(lp371
S'eastward_turbulent_velocity'
p372
aS'northward_turbulent_velocity'
p373
aS'turbulent_velocity_east'
p374
aS'turbulent_velocity_north'
p375
aS'turbulent_velocity_up'
p376
aS'upward_turbulent_velocity'
p377
ag9
ag10
ag11
asS'wavss_a_dcl_mean_directional_recovered'
p378
(lp379
S'directional_spread_array'
p380
aS'mean_direction'
p381
aS'mean_direction_array'
p382
aS'psd_mean_directional'
p383
aS'spread_direction'
p384
aS'wavss_a_corrected_directional_wave_direction'
p385
aS'wavss_a_corrected_mean_wave_direction'
p386
aS'wavss_a_directional_frequency'
p387
ag9
ag10
ag11
asS'wavss_a_dcl_statistics_recovered'
p388
(lp389
S'average_wave_height'
p390
aS'max_wave_height'
p391
aS'mean_direction'
p392
aS'mean_wave_period'
p393
aS'number_zero_crossings'
p394
aS'peak_wave_period'
p395
aS'significant_period'
p396
aS'significant_wave_height'
p397
aS'wave_height_10'
p398
aS'wave_height_hmo'
p399
aS'wave_period_10'
p400
aS'wave_period_tp5'
p401
ag9
ag10
ag11
asS'pco2w_abc_imodem_instrument_blank_recovered'
p402
(lp403
S'absorbance_blank_434'
p404
aS'absorbance_blank_620'
p405
aS'thermistor_raw'
p406
ag9
ag10
ag11
asS'flort_dj_dcl_instrument'
p407
(lp408
S'flort_dj_dcl_bback_total'
p409
aS'flort_k_total_volume_scattering_coefficient'
p410
aS'fluorometric_cdom'
p411
aS'fluorometric_chlorophyll_a'
p412
aS'raw_signal_beta'
p413
aS'raw_signal_cdom'
p414
aS'raw_signal_chl'
p415
ag9
ag10
ag11
asS'trhph_sample'
p416
(lp417
S'eh_sensor'
p418
aS'ref_temp_volts'
p419
aS'resistivity_5'
p420
aS'resistivity_temp_volts'
p421
aS'resistivity_x1'
p422
aS'resistivity_x5'
p423
aS'trhph_thermistor_temp'
p424
aS'vent_fluid_chloride_conc'
p425
aS'vent_fluid_orp'
p426
aS'vent_fluid_temperaure'
p427
ag9
ag10
ag11
asS'flort_kn_stc_imodem_instrument_recovered'
p428
(lp429
S'flort_k_total_volume_scattering_coefficient'
p430
aS'flort_kn_bback_total'
p431
aS'fluorometric_cdom'
p432
aS'fluorometric_chlorophyll_a'
p433
aS'raw_signal_beta'
p434
aS'raw_signal_cdom'
p435
aS'raw_signal_chl'
p436
ag9
ag10
ag11
asS'pco2w_abc_dcl_instrument'
p437
(lp438
S'absorbance_ratio_434'
p439
aS'absorbance_ratio_620'
p440
aS'pco2_seawater'
p441
aS'thermistor_raw'
p442
ag9
ag10
ag11
asS'adcpt_acfgm_pd0_dcl_instrument_recovered'
p443
(lp444
S'adcpt_acfgm_dcl_eastward_earth_seawater_velocity'
p445
aS'adcpt_acfgm_dcl_northward_earth_seawater_velocity'
p446
aS'corrected_echo_intensity_beam1'
p447
aS'corrected_echo_intensity_beam2'
p448
aS'corrected_echo_intensity_beam3'
p449
aS'corrected_echo_intensity_beam4'
p450
aS'earth_error_velocity'
p451
aS'echo_intensity_beam1'
p452
aS'echo_intensity_beam2'
p453
aS'echo_intensity_beam3'
p454
aS'echo_intensity_beam4'
p455
aS'error_velocity'
p456
aS'upward_earth_seawater_velocity'
p457
aS'water_velocity_east'
p458
aS'water_velocity_north'
p459
aS'water_velocity_up'
p460
aS'adcpt_acfgm_dcl_eastward_earth_seawater_velocity'
p461
aS'adcpt_acfgm_dcl_northward_earth_seawater_velocity'
p462
aS'corrected_echo_intensity_beam1'
p463
aS'corrected_echo_intensity_beam2'
p464
aS'corrected_echo_intensity_beam3'
p465
aS'corrected_echo_intensity_beam4'
p466
aS'earth_error_velocity'
p467
aS'echo_intensity_beam1'
p468
aS'echo_intensity_beam2'
p469
aS'echo_intensity_beam3'
p470
aS'echo_intensity_beam4'
p471
aS'error_velocity'
p472
aS'upward_earth_seawater_velocity'
p473
aS'water_velocity_east'
p474
aS'water_velocity_north'
p475
aS'water_velocity_up'
p476
ag9
ag10
ag11
asS'spkir_abj_dcl_instrument_recovered'
p477
(lp478
S'channel_array'
p479
aS'spkir_abj_cspp_downwelling_vector'
p480
ag9
ag10
ag11
asS'nutnr_b_instrument_recovered'
p481
(lp482
S'nitrate_concentration'
p483
aS'nutnr_b_temp_sal_corrected_nitrate'
p484
aS'spectral_channels'
p485
ag9
ag10
ag11
asS'parad_j_cspp_instrument_recovered'
p486
(lp487
S'par'
p488
aS'parad_j_par_counts_output'
p489
ag9
ag10
ag11
asS'velpt_ab_dcl_instrument_recovered'
p490
(lp491
S'velocity_beam1'
p492
aS'velocity_beam2'
p493
aS'velocity_beam3'
p494
aS'velpt_ab_eastward_velocity'
p495
aS'velpt_ab_northward_velocity'
p496
aS'velpt_ab_upward_velocity'
p497
ag9
ag10
ag11
asS'ctdpf_sbe43_sample'
p498
(lp499
S'conductivity'
p500
aS'corrected_dissolved_oxygen'
p501
aS'ext_volt0'
p502
aS'practical_salinity'
p503
aS'pressure'
p504
aS'pressure_temp'
p505
aS'seawater_conductivity'
p506
aS'seawater_density'
p507
aS'seawater_pressure'
p508
aS'seawater_temperature'
p509
aS'temperature'
p510
aS'conductivity'
p511
aS'corrected_dissolved_oxygen'
p512
aS'ext_volt0'
p513
aS'practical_salinity'
p514
aS'pressure'
p515
aS'pressure_temp'
p516
aS'seawater_conductivity'
p517
aS'seawater_density'
p518
aS'seawater_pressure'
p519
aS'seawater_temperature'
p520
aS'temperature'
p521
ag9
ag10
ag11
asS'velpt_ab_dcl_instrument'
p522
(lp523
S'velocity_beam1'
p524
aS'velocity_beam2'
p525
aS'velocity_beam3'
p526
aS'velpt_ab_eastward_velocity'
p527
aS'velpt_ab_northward_velocity'
p528
aS'velpt_ab_upward_velocity'
p529
ag9
ag10
ag11
asS'ctdpf_optode_sample'
p530
(lp531
S'conductivity'
p532
aS'ctd_abs_oxygen'
p533
aS'ctd_tc_oxygen'
p534
aS'oxy_calphase'
p535
aS'oxy_temp'
p536
aS'oxygen'
p537
aS'practical_salinity'
p538
aS'pressure'
p539
aS'pressure_temp'
p540
aS'seawater_conductivity'
p541
aS'seawater_density'
p542
aS'seawater_pressure'
p543
aS'seawater_temperature'
p544
aS'temperature'
p545
aS'conductivity'
p546
aS'ctd_abs_oxygen'
p547
aS'ctd_tc_oxygen'
p548
aS'oxy_calphase'
p549
aS'oxy_temp'
p550
aS'oxygen'
p551
aS'practical_salinity'
p552
aS'pressure'
p553
aS'pressure_temp'
p554
aS'seawater_conductivity'
p555
aS'seawater_density'
p556
aS'seawater_pressure'
p557
aS'seawater_temperature'
p558
aS'temperature'
p559
ag9
ag10
ag11
asS'pco2a_a_dcl_instrument_water_recovered'
p560
(lp561
S'gas_stream_pressure'
p562
aS'measured_water_co2'
p563
aS'partial_pressure_co2_ssw'
p564
aS'pco2_co2flux'
p565
ag9
ag10
ag11
asS'dosta_abcdjm_dcl_instrument'
p566
(lp567
S'calibrated_phase'
p568
aS'dosta_abcdjm_cspp_tc_oxygen'
p569
aS'dosta_abcdjm_dcl_abs_oxygen'
p570
aS'dosta_abcdjm_dcl_ctdbp_abs_oxygen'
p571
aS'dosta_abcdjm_dcl_metbk_abs_oxygen'
p572
aS'estimated_oxygen_concentration'
p573
aS'estimated_oxygen_saturation'
p574
ag9
ag10
ag11
asS'ctdbp_no_sample'
p575
(lp576
S'conductivity'
p577
aS'ctd_tc_oxygen'
p578
aS'ctdbp_no_abs_oxygen'
p579
aS'ctdbp_no_practical_salinity'
p580
aS'ctdbp_no_seawater_conductivity'
p581
aS'ctdbp_no_seawater_density'
p582
aS'ctdbp_no_seawater_pressure'
p583
aS'oxy_calphase'
p584
aS'oxy_temp'
p585
aS'oxygen'
p586
aS'pressure'
p587
aS'pressure_temp'
p588
aS'seawater_temperature'
p589
aS'temperature'
p590
aS'conductivity'
p591
aS'ctd_tc_oxygen'
p592
aS'ctdbp_no_abs_oxygen'
p593
aS'ctdbp_no_practical_salinity'
p594
aS'ctdbp_no_seawater_conductivity'
p595
aS'ctdbp_no_seawater_density'
p596
aS'ctdbp_no_seawater_pressure'
p597
aS'oxy_calphase'
p598
aS'oxy_temp'
p599
aS'oxygen'
p600
aS'pressure'
p601
aS'pressure_temp'
p602
aS'seawater_temperature'
p603
aS'temperature'
p604
ag9
ag10
ag11
asS'nutnr_a_dark_sample'
p605
(lp606
S'nitrate_concentration'
p607
aS'spectral_channels'
p608
ag9
ag10
ag11
asS'ctdpf_ckl_wfp_instrument'
p609
(lp610
S'conductivity'
p611
aS'ctdpf_ckl_sci_water_pracsal'
p612
aS'ctdpf_ckl_seawater_conductivity'
p613
aS'ctdpf_ckl_seawater_density'
p614
aS'ctdpf_ckl_seawater_pressure'
p615
aS'ctdpf_ckl_seawater_temperature'
p616
aS'pressure'
p617
aS'temperature'
p618
ag9
ag10
ag11
asS'velpt_ab_dcl_diagnostics_recovered'
p619
(lp620
S'velocity_beam1'
p621
aS'velocity_beam2'
p622
aS'velocity_beam3'
p623
aS'velpt_ab_eastward_velocity'
p624
aS'velpt_ab_northward_velocity'
p625
aS'velpt_ab_upward_velocity'
p626
ag9
ag10
ag11
asS'flort_dj_cspp_instrument_recovered'
p627
(lp628
S'flort_dj_cspp_bback_total'
p629
aS'flort_k_total_volume_scattering_coefficient'
p630
aS'fluorometric_cdom'
p631
aS'fluorometric_chlorophyll_a'
p632
aS'raw_signal_beta'
p633
aS'raw_signal_cdom'
p634
aS'raw_signal_chl'
p635
ag9
ag10
ag11
asS'dofst_k_wfp_instrument'
p636
(lp637
S'dofst_k_oxygen'
p638
aS'dofst_k_oxygen_l2'
p639
ag9
ag10
ag11
asS'flort_dj_sio_instrument'
p640
(lp641
S'flort_dj_bback_total'
p642
aS'flort_k_total_volume_scattering_coefficient'
p643
aS'fluorometric_cdom'
p644
aS'fluorometric_chlorophyll_a'
p645
aS'raw_signal_beta'
p646
aS'raw_signal_cdom'
p647
aS'raw_signal_chl'
p648
ag9
ag10
ag11
asS'metbk_a_dcl_instrument_recovered'
p649
(lp650
S'air_temperature'
p651
aS'barometric_pressure'
p652
aS'eastward_wind_velocity'
p653
aS'longwave_irradiance'
p654
aS'met_barpres'
p655
aS'met_current_direction'
p656
aS'met_current_speed'
p657
aS'met_netlirr'
p658
aS'met_netsirr'
p659
aS'met_rainrte'
p660
aS'met_relwind_direction'
p661
aS'met_relwind_speed'
p662
aS'met_salsurf'
p663
aS'met_spechum'
p664
aS'met_windavg_mag_corr_east'
p665
aS'met_windavg_mag_corr_north'
p666
aS'northward_wind_velocity'
p667
aS'precipitation'
p668
aS'relative_humidity'
p669
aS'sea_surface_conductivity'
p670
aS'sea_surface_temperature'
p671
aS'shortwave_irradiance'
p672
ag9
ag10
ag11
asS'adcps_jln_instrument'
p673
(lp674
S'adcps_jln_echo_intensity_beam1'
p675
aS'adcps_jln_echo_intensity_beam2'
p676
aS'adcps_jln_echo_intensity_beam3'
p677
aS'adcps_jln_echo_intensity_beam4'
p678
aS'adcps_jln_error_velocity2'
p679
aS'adcps_jln_recovered_eastward_seawater_velocity'
p680
aS'adcps_jln_recovered_northward_seawater_velocity'
p681
aS'adcps_jln_upward_seawater_velocity2'
p682
aS'echo_intensity_beam1'
p683
aS'echo_intensity_beam2'
p684
aS'echo_intensity_beam3'
p685
aS'echo_intensity_beam4'
p686
aS'error_velocity'
p687
aS'water_velocity_east'
p688
aS'water_velocity_north'
p689
aS'water_velocity_up'
p690
aS'adcps_jln_echo_intensity_beam1'
p691
aS'adcps_jln_echo_intensity_beam2'
p692
aS'adcps_jln_echo_intensity_beam3'
p693
aS'adcps_jln_echo_intensity_beam4'
p694
aS'adcps_jln_error_velocity2'
p695
aS'adcps_jln_recovered_eastward_seawater_velocity'
p696
aS'adcps_jln_recovered_northward_seawater_velocity'
p697
aS'adcps_jln_upward_seawater_velocity2'
p698
aS'echo_intensity_beam1'
p699
aS'echo_intensity_beam2'
p700
aS'echo_intensity_beam3'
p701
aS'echo_intensity_beam4'
p702
aS'error_velocity'
p703
aS'water_velocity_east'
p704
aS'water_velocity_north'
p705
aS'water_velocity_up'
p706
ag9
ag10
ag11
asS'dpc_acs_instrument_recovered'
p707
(lp708
S'a_reference_counts'
p709
aS'a_signal_counts'
p710
aS'c_reference_counts'
p711
aS'c_signal_counts'
p712
aS'dpc_acs_beam_attenuation'
p713
aS'dpc_acs_optical_absorption'
p714
aS'internal_temp_raw'
p715
ag9
ag10
ag11
asS'pco2w_a_sami_data_record_cal'
p716
(lp717
S'pco2w_a_absorbance_blank_434'
p718
aS'pco2w_a_absorbance_blank_620'
p719
aS'thermistor_raw'
p720
ag9
ag10
ag11
asS'optaa_dj_dcl_instrument'
p721
(lp722
S'a_reference_counts'
p723
aS'a_signal_counts'
p724
aS'c_reference_counts'
p725
aS'c_signal_counts'
p726
aS'internal_temp_raw'
p727
aS'optaa_dj_dcl_beam_attenuation'
p728
aS'optaa_dj_dcl_optical_absorption'
p729
ag9
ag10
ag11
asS'phsen_abcdef_sio_mule_instrument'
p730
(lp731
S'phsen_abcdef_ph_seawater'
p732
aS'phsen_thermistor_temperature'
p733
ag9
ag10
ag11
asS'pco2w_b_sami_data_record'
p734
(lp735
S'absorbance_ratio_434'
p736
aS'absorbance_ratio_620'
p737
aS'pco2w_b_absorbance_blank_434'
p738
aS'pco2w_b_absorbance_blank_620'
p739
aS'pco2w_b_seawater'
p740
aS'pco2w_thermistor_temperature'
p741
aS'thermistor_raw'
p742
ag9
ag10
ag11
asS'spkir_data_record'
p743
(lp744
S'spkir_downwelling_vector'
p745
aS'spkir_samples'
p746
ag9
ag10
ag11
asS'pco2a_a_dcl_instrument_water'
p747
(lp748
S'gas_stream_pressure'
p749
aS'measured_water_co2'
p750
aS'partial_pressure_co2_ssw'
p751
aS'pco2_co2flux'
p752
ag9
ag10
ag11
asS'nutnr_m_instrument_recovered'
p753
(lp754
S'nitrate_concentration'
p755
aS'nutnr_m_temp_sal_corrected_nitrate'
p756
aS'spectral_channels'
p757
ag9
ag10
ag11
asS'flort_dj_sio_instrument_recovered'
p758
(lp759
S'flort_dj_bback_total'
p760
aS'flort_k_total_volume_scattering_coefficient'
p761
aS'fluorometric_cdom'
p762
aS'fluorometric_chlorophyll_a'
p763
aS'raw_signal_beta'
p764
aS'raw_signal_cdom'
p765
aS'raw_signal_chl'
p766
ag9
ag10
ag11
asS'ctdbp_p_dcl_instrument_recovered'
p767
(lp768
S'conductivity'
p769
aS'ctdbp_cdef_dcl_ce_density'
p770
aS'pressure'
p771
aS'salinity'
p772
aS'temp'
p773
ag9
ag10
ag11
asS'thsph_sample'
p774
(lp775
S'thsph_bthermistor'
p776
aS'thsph_h2electrode'
p777
aS'thsph_hie1'
p778
aS'thsph_hie2'
p779
aS'thsph_hydrogen'
p780
aS'thsph_ph'
p781
aS'thsph_ph_acl'
p782
aS'thsph_ph_noref'
p783
aS'thsph_ph_noref_acl'
p784
aS'thsph_rthermistor'
p785
aS'thsph_s2electrode'
p786
aS'thsph_sulfide'
p787
aS'thsph_temp_int'
p788
aS'thsph_temp_ref'
p789
aS'thsph_temp_tch'
p790
aS'thsph_temp_tcl'
p791
aS'thsph_temp_th'
p792
aS'thsph_temp_tl'
p793
aS'thsph_thermocouple1'
p794
aS'thsph_thermocouple2'
p795
ag9
ag10
ag11
asS'ctdgv_m_glider_instrument_recovered'
p796
(lp797
S'sci_seawater_density'
p798
aS'sci_water_cond'
p799
aS'sci_water_pracsal'
p800
aS'sci_water_pressure'
p801
aS'sci_water_temp'
p802
ag9
ag10
ag11
asS'nutnr_m_dark_instrument_recovered'
p803
(lp804
S'nitrate_concentration'
p805
ag9
ag10
ag11
asS'vel3d_cd_dcl_velocity_data_recovered'
p806
(lp807
S'turbulent_velocity_east'
p808
aS'turbulent_velocity_north'
p809
aS'turbulent_velocity_vertical'
p810
aS'vel3d_c_eastward_turbulent_velocity'
p811
aS'vel3d_c_northward_turbulent_velocity'
p812
aS'vel3d_c_upward_turbulent_velocity'
p813
ag9
ag10
ag11
asS'adcp_pd0_earth_parsed'
p814
(lp815
S'corrected_echo_intensity_beam1'
p816
aS'corrected_echo_intensity_beam2'
p817
aS'corrected_echo_intensity_beam3'
p818
aS'corrected_echo_intensity_beam4'
p819
aS'echo_intensity_beam1'
p820
aS'echo_intensity_beam2'
p821
aS'echo_intensity_beam3'
p822
aS'echo_intensity_beam4'
p823
aS'error_velocity'
p824
aS'water_velocity_east'
p825
aS'water_velocity_north'
p826
aS'water_velocity_up'
p827
aS'corrected_echo_intensity_beam1'
p828
aS'corrected_echo_intensity_beam2'
p829
aS'corrected_echo_intensity_beam3'
p830
aS'corrected_echo_intensity_beam4'
p831
aS'echo_intensity_beam1'
p832
aS'echo_intensity_beam2'
p833
aS'echo_intensity_beam3'
p834
aS'echo_intensity_beam4'
p835
aS'error_velocity'
p836
aS'water_velocity_east'
p837
aS'water_velocity_north'
p838
aS'water_velocity_up'
p839
aS'corrected_echo_intensity_beam1'
p840
aS'corrected_echo_intensity_beam2'
p841
aS'corrected_echo_intensity_beam3'
p842
aS'corrected_echo_intensity_beam4'
p843
aS'echo_intensity_beam1'
p844
aS'echo_intensity_beam2'
p845
aS'echo_intensity_beam3'
p846
aS'echo_intensity_beam4'
p847
aS'error_velocity'
p848
aS'water_velocity_east'
p849
aS'water_velocity_north'
p850
aS'water_velocity_up'
p851
ag9
ag10
ag11
asS'nutnr_a_sample'
p852
(lp853
S'nitrate_concentration'
p854
aS'spectral_channels'
p855
aS'temp_sal_corrected_nitrate'
p856
ag9
ag10
ag11
asS'nutnr_b_dcl_conc_instrument'
p857
(lp858
S'nitrate_concentration'
p859
ag9
ag10
ag11
asS'ctdbp_p_dcl_instrument'
p860
(lp861
S'conductivity'
p862
aS'ctdbp_cdef_dcl_ce_density'
p863
aS'pressure'
p864
aS'salinity'
p865
aS'temp'
p866
ag9
ag10
ag11
asS'fdchp_a_dcl_instrument_recovered'
p867
(lp868
S'buoyance_flux'
p869
aS'uw_momentum_flux'
p870
aS'vw_momentum_flux'
p871
ag9
ag10
ag11
asS'pco2w_abc_dcl_instrument_blank'
p872
(lp873
S'absorbance_blank_434'
p874
aS'absorbance_blank_620'
p875
aS'thermistor_raw'
p876
ag9
ag10
ag11
asS'flort_dj_dcl_instrument_recovered'
p877
(lp878
S'flort_dj_dcl_bback_total'
p879
aS'flort_k_total_volume_scattering_coefficient'
p880
aS'fluorometric_cdom'
p881
aS'fluorometric_chlorophyll_a'
p882
aS'raw_signal_beta'
p883
aS'raw_signal_cdom'
p884
aS'raw_signal_chl'
p885
ag9
ag10
ag11
asS'Still in development'
p886
(lp887
S'Still in development'
p888
aS'Still in development'
p889
ag9
ag10
ag11
asS'optaa_dj_dcl_instrument_recovered'
p890
(lp891
S'a_reference_counts'
p892
aS'a_signal_counts'
p893
aS'c_reference_counts'
p894
aS'c_signal_counts'
p895
aS'internal_temp_raw'
p896
aS'optaa_dj_dcl_beam_attenuation'
p897
aS'optaa_dj_dcl_optical_absorption'
p898
ag9
ag10
ag11
asS'parad_k__stc_imodem_instrument_recovered'
p899
(lp900
S'par_val_v'
p901
aS'parad_k_par'
p902
ag9
ag10
ag11
asS'vadcp_5thbeam_pd0_beam_parsed'
p903
(lp904
S'beam_1_velocity'
p905
aS'beam_2_velocity'
p906
aS'beam_3_velocity'
p907
aS'beam_4_velocity'
p908
aS'corrected_echo_intensity_beam1'
p909
aS'corrected_echo_intensity_beam2'
p910
aS'corrected_echo_intensity_beam3'
p911
aS'corrected_echo_intensity_beam4'
p912
aS'echo_intensity_beam1'
p913
aS'echo_intensity_beam2'
p914
aS'echo_intensity_beam3'
p915
aS'echo_intensity_beam4'
p916
aS'vadcp_beam_error'
p917
aS'vadcp_eastward_seawater_velocity'
p918
aS'vadcp_northward_seawater_velocity'
p919
aS'vadcp_upward_seawater_velocity_est'
p920
aS'vadcp_upward_seawater_velocity_tru'
p921
ag9
ag10
ag11
asS'parad_m_glider_recovered'
p922
(lp923
S'sci_bsipar_par'
p924
aS'sci_bsipar_sensor_volts'
p925
ag9
ag10
ag11
asS'adcpt_acfgm_pd8_dcl_instrument_recovered'
p926
(lp927
S'adcps_pd12_eastward_seawater_velocity'
p928
aS'adcps_pd12_northward_seawater_velocity'
p929
aS'corrected_echo_intensity_beam1'
p930
aS'corrected_echo_intensity_beam2'
p931
aS'corrected_echo_intensity_beam3'
p932
aS'corrected_echo_intensity_beam4'
p933
aS'earth_error_velocity'
p934
aS'echo_intensity_beam1'
p935
aS'echo_intensity_beam2'
p936
aS'echo_intensity_beam3'
p937
aS'echo_intensity_beam4'
p938
aS'error_velocity'
p939
aS'temperature'
p940
aS'upward_earth_seawater_velocity'
p941
aS'water_velocity_east'
p942
aS'water_velocity_north'
p943
aS'water_velocity_up'
p944
aS'adcps_pd12_eastward_seawater_velocity'
p945
aS'adcps_pd12_northward_seawater_velocity'
p946
aS'corrected_echo_intensity_beam1'
p947
aS'corrected_echo_intensity_beam2'
p948
aS'corrected_echo_intensity_beam3'
p949
aS'corrected_echo_intensity_beam4'
p950
aS'earth_error_velocity'
p951
aS'echo_intensity_beam1'
p952
aS'echo_intensity_beam2'
p953
aS'echo_intensity_beam3'
p954
aS'echo_intensity_beam4'
p955
aS'error_velocity'
p956
aS'temperature'
p957
aS'upward_earth_seawater_velocity'
p958
aS'water_velocity_east'
p959
aS'water_velocity_north'
p960
aS'water_velocity_up'
p961
ag9
ag10
ag11
asS'ctdbp_cdef_dcl_instrument_recovered'
p962
(lp963
S'conductivity'
p964
aS'ctdbp_cdef_dcl_ce_density'
p965
aS'pressure'
p966
aS'salinity'
p967
aS'temp'
p968
ag9
ag10
ag11
asS'wavss_a_dcl_mean_directional'
p969
(lp970
S'directional_spread_array'
p971
aS'mean_direction'
p972
aS'mean_direction_array'
p973
aS'psd_mean_directional'
p974
aS'spread_direction'
p975
aS'wavss_a_corrected_directional_wave_direction'
p976
aS'wavss_a_corrected_mean_wave_direction'
p977
aS'wavss_a_directional_frequency'
p978
ag9
ag10
ag11
asS'botpt_lily_leveling'
p979
(lp980
S'compass_direction'
p981
aS'lily_x_tilt'
p982
aS'lily_y_tilt'
p983
ag9
ag10
ag11
asS'dpc_optode_instrument'
p984
(lp985
S'calibrated_phase'
p986
aS'dosta_abcdjm_cspp_tc_oxygen'
p987
aS'dpc_optode_abs_oxygen'
p988
aS'optode_temperature'
p989
ag9
ag10
ag11
asS'velpt_velocity_data'
p990
(lp991
S'pressure_mbar'
p992
aS'velocity_beam1'
p993
aS'velocity_beam2'
p994
aS'velocity_beam3'
p995
aS'velpt_d_eastward_velocity'
p996
aS'velpt_d_northward_velocity'
p997
aS'velpt_d_upward_velocity'
p998
ag9
ag10
ag11
asS'wavss_a_dcl_statistics'
p999
(lp1000
S'average_wave_height'
p1001
aS'max_wave_height'
p1002
aS'mean_direction'
p1003
aS'mean_wave_period'
p1004
aS'number_zero_crossings'
p1005
aS'peak_wave_period'
p1006
aS'significant_period'
p1007
aS'significant_wave_height'
p1008
aS'wave_height_10'
p1009
aS'wave_height_hmo'
p1010
aS'wave_period_10'
p1011
aS'wave_period_tp5'
p1012
ag9
ag10
ag11
asS'pco2a_a_dcl_instrument_air_recovered'
p1013
(lp1014
S'gas_stream_pressure'
p1015
aS'measured_air_co2'
p1016
aS'partial_pressure_co2_atm'
p1017
aS'pco2_co2flux'
p1018
ag9
ag10
ag11
asS'ctdpf_ckl_wfp_instrument_recovered'
p1019
(lp1020
S'conductivity'
p1021
aS'ctdpf_ckl_sci_water_pracsal'
p1022
aS'ctdpf_ckl_seawater_conductivity'
p1023
aS'ctdpf_ckl_seawater_density'
p1024
aS'ctdpf_ckl_seawater_pressure'
p1025
aS'ctdpf_ckl_seawater_temperature'
p1026
aS'pressure'
p1027
aS'temperature'
p1028
ag9
ag10
ag11
asS'ctdmo_ghqr_sio_mule_instrument'
p1029
(lp1030
S'conductivity'
p1031
aS'ctdmo_practical_salinity'
p1032
aS'ctdmo_seawater_conductivity'
p1033
aS'ctdmo_seawater_density'
p1034
aS'ctdmo_seawater_pressure'
p1035
aS'ctdmo_seawater_temperature'
p1036
aS'pressure'
p1037
aS'temperature'
p1038
ag9
ag10
ag11
asS'pco2w_abc_imodem_instrument'
p1039
(lp1040
S'absorbance_ratio_434'
p1041
aS'absorbance_ratio_620'
p1042
aS'pco2_seawater'
p1043
aS'thermistor_raw'
p1044
ag9
ag10
ag11
asS'adcpt_m_instrument_log9_recovered'
p1045
(lp1046
S'h_1_10'
p1047
aS'h_max'
p1048
aS'h_mean'
p1049
aS'peak_wave_direction'
p1050
aS'peak_wave_period'
p1051
aS'significant_wave_height'
p1052
aS't_1_10'
p1053
aS't_mean'
p1054
aS'h_1_10'
p1055
aS'h_max'
p1056
aS'h_mean'
p1057
aS'peak_wave_direction'
p1058
aS'peak_wave_period'
p1059
aS'significant_wave_height'
p1060
aS't_1_10'
p1061
aS't_mean'
p1062
ag9
ag10
ag11
asS'ctdpf_j_cspp_instrument'
p1063
(lp1064
S'conductivity'
p1065
aS'ctdpf_j_density'
p1066
aS'pressure'
p1067
aS'salinity'
p1068
aS'temperature'
p1069
ag9
ag10
ag11
asS'flort_dj_cspp_instrument'
p1070
(lp1071
S'flort_dj_cspp_bback_total'
p1072
aS'flort_k_total_volume_scattering_coefficient'
p1073
aS'fluorometric_cdom'
p1074
aS'fluorometric_chlorophyll_a'
p1075
aS'raw_signal_beta'
p1076
aS'raw_signal_cdom'
p1077
aS'raw_signal_chl'
p1078
ag9
ag10
ag11
asS'ppsdn_a_subcon_instrument_recovered'
p1079
(lp1080
S'fasta_url'
p1081
aS'ncbi_sequence_read_archive_url'
p1082
aS'vamps_url'
p1083
ag9
ag10
ag11
asS'adcp_pd0_beam_parsed'
p1084
(lp1085
S'beam_1_velocity'
p1086
aS'beam_2_velocity'
p1087
aS'beam_3_velocity'
p1088
aS'beam_4_velocity'
p1089
aS'beam_error_velocity'
p1090
aS'corrected_echo_intensity_beam1'
p1091
aS'corrected_echo_intensity_beam2'
p1092
aS'corrected_echo_intensity_beam3'
p1093
aS'corrected_echo_intensity_beam4'
p1094
aS'eastward_beam_seawater_velocity'
p1095
aS'echo_intensity_beam1'
p1096
aS'echo_intensity_beam2'
p1097
aS'echo_intensity_beam3'
p1098
aS'echo_intensity_beam4'
p1099
aS'northward_beam_seawater_velocity'
p1100
aS'upward_seawater_velocity'
p1101
aS'beam_1_velocity'
p1102
aS'beam_2_velocity'
p1103
aS'beam_3_velocity'
p1104
aS'beam_4_velocity'
p1105
aS'beam_error_velocity'
p1106
aS'corrected_echo_intensity_beam1'
p1107
aS'corrected_echo_intensity_beam2'
p1108
aS'corrected_echo_intensity_beam3'
p1109
aS'corrected_echo_intensity_beam4'
p1110
aS'eastward_beam_seawater_velocity'
p1111
aS'echo_intensity_beam1'
p1112
aS'echo_intensity_beam2'
p1113
aS'echo_intensity_beam3'
p1114
aS'echo_intensity_beam4'
p1115
aS'northward_beam_seawater_velocity'
p1116
aS'upward_seawater_velocity'
p1117
aS'beam_1_velocity'
p1118
aS'beam_2_velocity'
p1119
aS'beam_3_velocity'
p1120
aS'beam_4_velocity'
p1121
aS'beam_error_velocity'
p1122
aS'corrected_echo_intensity_beam1'
p1123
aS'corrected_echo_intensity_beam2'
p1124
aS'corrected_echo_intensity_beam3'
p1125
aS'corrected_echo_intensity_beam4'
p1126
aS'eastward_beam_seawater_velocity'
p1127
aS'echo_intensity_beam1'
p1128
aS'echo_intensity_beam2'
p1129
aS'echo_intensity_beam3'
p1130
aS'echo_intensity_beam4'
p1131
aS'northward_beam_seawater_velocity'
p1132
aS'upward_seawater_velocity'
p1133
ag9
ag10
ag11
asS'phsen_abcdef_imodem_instrument'
p1134
(lp1135
S'phsen_abcdef_ph_seawater'
p1136
aS'phsen_abcdef_signal_intensity_434'
p1137
aS'phsen_abcdef_signal_intensity_578'
p1138
aS'phsen_thermistor_temperature'
p1139
ag9
ag10
ag11
asS'fdchp_a_dcl_instrument'
p1140
(lp1141
S'buoyance_flux'
p1142
aS'uw_momentum_flux'
p1143
aS'vw_momentum_flux'
p1144
ag9
ag10
ag11
asS'd1000_sample'
p1145
(lp1146
S'temperature1'
p1147
aS'temperature2'
p1148
aS'temperature3'
p1149
ag9
ag10
ag11
asS'ctdpf_j_cspp_instrument_recovered'
p1150
(lp1151
S'conductivity'
p1152
aS'ctdpf_j_density'
p1153
aS'pressure'
p1154
aS'salinity'
p1155
aS'temperature'
p1156
ag9
ag10
ag11
asS'vel3d_cd_velocity_data'
p1157
(lp1158
S'turbulent_velocity_east'
p1159
aS'turbulent_velocity_north'
p1160
aS'turbulent_velocity_vertical'
p1161
aS'vel3d_c_eastward_turbulent_velocity'
p1162
aS'vel3d_c_northward_turbulent_velocity'
p1163
aS'vel3d_c_upward_turbulent_velocity'
p1164
ag9
ag10
ag11
asS'presf_abc_dcl_tide_measurement_recovered'
p1165
(lp1166
S'abs_seafloor_pressure'
p1167
aS'absolute_pressure'
p1168
ag9
ag10
ag11
asS'nutnr_m_glider_instrument'
p1169
(lp1170
S'sci_suna_nitrate_mg'
p1171
aS'sci_suna_nitrate_um'
p1172
ag9
ag10
ag11
asS'tmpsf_sample'
p1173
(lp1174
S'temperature01'
p1175
aS'temperature02'
p1176
aS'temperature03'
p1177
aS'temperature04'
p1178
aS'temperature05'
p1179
aS'temperature06'
p1180
aS'temperature07'
p1181
aS'temperature08'
p1182
aS'temperature09'
p1183
aS'temperature10'
p1184
aS'temperature11'
p1185
aS'temperature12'
p1186
aS'temperature13'
p1187
aS'temperature14'
p1188
aS'temperature15'
p1189
aS'temperature16'
p1190
aS'temperature17'
p1191
aS'temperature18'
p1192
aS'temperature19'
p1193
aS'temperature20'
p1194
aS'temperature21'
p1195
aS'temperature22'
p1196
aS'temperature23'
p1197
aS'temperature24'
p1198
ag9
ag10
ag11
asS'botpt_nano_sample'
p1199
(lp1200
S'botsflu_10minrate'
p1201
aS'botsflu_4wkrate'
p1202
aS'botsflu_5minrate'
p1203
aS'botsflu_8wkrate'
p1204
aS'botsflu_daydepth'
p1205
aS'botsflu_meandepth'
p1206
aS'botsflu_meanpres'
p1207
aS'botsflu_predtide'
p1208
aS'botsflu_time15s'
p1209
aS'botsflu_time24h'
p1210
aS'bottom_pressure'
p1211
ag9
ag10
ag11
asS'rasfl_a_subcon_instrument_recovered'
p1212
(lp1213
S'acidity'
p1214
aS'alkalinity'
p1215
aS'aluminum_concentration'
p1216
aS'ammonia_concentration'
p1217
aS'barium_concentration'
p1218
aS'boron_concentration'
p1219
aS'bromide_concentration'
p1220
aS'cadmium_concentration'
p1221
aS'calcium_concentration'
p1222
aS'cesium_concentration'
p1223
aS'chloride_concentration'
p1224
aS'cobalt_concentration'
p1225
aS'copper_concentration'
p1226
aS'gadolinium_concentration'
p1227
aS'hydrogen_sulfide_concentration'
p1228
aS'iron_concentration'
p1229
aS'lead_concentration'
p1230
aS'lithium_concentration'
p1231
aS'magnesium_concentration'
p1232
aS'manganese_concentration'
p1233
aS'molybdenum_concentration'
p1234
aS'nickel_concentration'
p1235
aS'potassium_concentration'
p1236
aS'rubidium_concentration'
p1237
aS'silicon_concentration'
p1238
aS'silver_concentration'
p1239
aS'sodium_concentration'
p1240
aS'strontium_icpaes_concentration'
p1241
aS'strontium_icpms_concentration'
p1242
aS'sulfate_concentration'
p1243
aS'temp'
p1244
aS'time'
p1245
aS'titanium_concentration'
p1246
aS'uranium_concentration'
p1247
aS'vanadium_concentration'
p1248
aS'yttrium_concentration'
p1249
aS'zinc_concentration'
p1250
ag9
ag10
ag11
asS'dosta_ln_wfp_instrument'
p1251
(lp1252
S'dosta_ln_wfp_abs_oxygen'
p1253
aS'estimated_oxygen_concentration'
p1254
aS'estimated_oxygen_saturation'
p1255
ag9
ag10
ag11
asS'wavss_a_dcl_motion'
p1256
(lp1257
S'east_offset_array'
p1258
aS'heave_offset_array'
p1259
aS'north_offset_array'
p1260
aS'wavss_a_buoymotion_time'
p1261
aS'wavss_a_magcor_buoymotion_x'
p1262
aS'wavss_a_magcor_buoymotion_y'
p1263
ag9
ag10
ag11
asS'nutnr_b_dcl_full_instrument'
p1264
(lp1265
S'nitrate_concentration'
p1266
aS'nutnr_b_temp_sal_corrected_nitrate'
p1267
aS'spectral_channels'
p1268
ag9
ag10
ag11
asS'vadcp_pd0_beam_parsed'
p1269
(lp1270
S'beam_1_velocity'
p1271
aS'beam_2_velocity'
p1272
aS'beam_3_velocity'
p1273
aS'beam_4_velocity'
p1274
aS'corrected_echo_intensity_beam1'
p1275
aS'corrected_echo_intensity_beam2'
p1276
aS'corrected_echo_intensity_beam3'
p1277
aS'corrected_echo_intensity_beam4'
p1278
aS'corrected_echo_intensity_beam5'
p1279
aS'echo_intensity_beam1'
p1280
aS'echo_intensity_beam2'
p1281
aS'echo_intensity_beam3'
p1282
aS'echo_intensity_beam4'
p1283
aS'vadcp_beam_error'
p1284
aS'vadcp_eastward_seawater_velocity'
p1285
aS'vadcp_northward_seawater_velocity'
p1286
aS'vadcp_upward_seawater_velocity_est'
p1287
aS'vadcp_upward_seawater_velocity_tru'
p1288
ag9
ag10
ag11
asS'nutnr_b_dark_instrument_recovered'
p1289
(lp1290
S'nitrate_concentration'
p1291
ag9
ag10
ag11
asS'dofst_k_wfp_instrument_recovered'
p1292
(lp1293
S'dofst_k_oxygen'
p1294
aS'dofst_k_oxygen_l2'
p1295
ag9
ag10
ag11
asS'ctdmo_ghqr_imodem_instrument_recovered'
p1296
(lp1297
S'conductivity'
p1298
aS'ctdmo_practical_salinity'
p1299
aS'ctdmo_seawater_conductivity'
p1300
aS'ctdmo_seawater_density'
p1301
aS'ctdmo_seawater_pressure'
p1302
aS'ctdmo_seawater_temperature'
p1303
aS'pressure'
p1304
aS'temperature'
p1305
ag9
ag10
ag11
asS'parad_j_cspp_instrument'
p1306
(lp1307
S'par'
p1308
aS'parad_j_par_counts_output'
p1309
ag9
ag10
ag11
asS'parad_sa_sample'
p1310
(lp1311
S'par'
p1312
aS'par_counts_output'
p1313
ag9
ag10
ag11
asS'flort_d_data_record'
p1314
(lp1315
S'flort_d_bback_total'
p1316
aS'fluorometric_cdom'
p1317
aS'fluorometric_chlorophyll_a'
p1318
aS'raw_signal_beta'
p1319
aS'raw_signal_cdom'
p1320
aS'raw_signal_chl'
p1321
aS'total_volume_scattering_coefficient'
p1322
aS'flort_d_bback_total'
p1323
aS'fluorometric_cdom'
p1324
aS'fluorometric_chlorophyll_a'
p1325
aS'raw_signal_beta'
p1326
aS'raw_signal_cdom'
p1327
aS'raw_signal_chl'
p1328
aS'total_volume_scattering_coefficient'
p1329
ag9
ag10
ag11
asS'optaa_dj_cspp_instrument_recovered'
p1330
(lp1331
S'a_reference_counts'
p1332
aS'a_signal_counts'
p1333
aS'c_reference_counts'
p1334
aS'c_signal_counts'
p1335
aS'internal_temp_raw'
p1336
aS'optaa_dj_cspp_beam_attenuation'
p1337
aS'optaa_dj_cspp_optical_absorption'
p1338
ag9
ag10
ag11
asS'dosta_abcdjm_glider_recovered'
p1339
(lp1340
S'sci_abs_oxygen'
p1341
aS'sci_oxy4_calphase'
p1342
aS'sci_oxy4_oxygen'
p1343
aS'sci_water_cond'
p1344
aS'sci_water_pressure'
p1345
aS'sci_water_temp'
p1346
ag9
ag10
ag11
asS'spkir_abj_cspp_instrument_recovered'
p1347
(lp1348
S'channel_array'
p1349
aS'spkir_abj_cspp_downwelling_vector'
p1350
ag9
ag10
ag11
asS'pco2w_abc_dcl_instrument_blank_recovered'
p1351
(lp1352
S'absorbance_blank_434'
p1353
aS'absorbance_blank_620'
p1354
aS'thermistor_raw'
p1355
ag9
ag10
ag11
asS'pco2w_abc_imodem_instrument_blank'
p1356
(lp1357
S'absorbance_blank_434'
p1358
aS'absorbance_blank_620'
p1359
aS'thermistor_raw'
p1360
ag9
ag10
ag11
asS'dpc_ctd_instrument'
p1361
(lp1362
S'dpc_ctd_seawater_conductivity'
p1363
aS'dpc_ctd_seawater_density'
p1364
aS'dpc_ctd_water_pracsal'
p1365
aS'pressure'
p1366
aS'temp'
p1367
ag9
ag10
ag11
asS'flort_kn_stc_imodem_instrument'
p1368
(lp1369
S'flort_k_total_volume_scattering_coefficient'
p1370
aS'flort_kn_bback_total'
p1371
aS'fluorometric_cdom'
p1372
aS'fluorometric_chlorophyll_a'
p1373
aS'raw_signal_beta'
p1374
aS'raw_signal_cdom'
p1375
aS'raw_signal_chl'
p1376
ag9
ag10
ag11
asS'nutnr_j_cspp_dark_instrument'
p1377
(lp1378
S'nitrate_concentration'
p1379
ag9
ag10
ag11
asS'wavss_a_dcl_non_directional_recovered'
p1380
(lp1381
S'psd_non_directional'
p1382
aS'wavss_a_non_directional_frequency'
p1383
ag9
ag10
ag11
asS'dosta_abcdjm_cspp_instrument_recovered'
p1384
(lp1385
S'calibrated_phase'
p1386
aS'dosta_abcdjm_cspp_abs_oxygen'
p1387
aS'dosta_abcdjm_cspp_tc_oxygen'
p1388
aS'estimated_oxygen_concentration'
p1389
ag9
ag10
ag11
asS'dosta_abcdjm_glider_instrument'
p1390
(lp1391
S'sci_abs_oxygen'
p1392
aS'sci_oxy4_oxygen'
p1393
ag9
ag10
ag11
asS'adcps_jln_stc_instrument_recovered'
p1394
(lp1395
S'adcps_jln_eastward_seawater_velocity2'
p1396
aS'adcps_jln_error_velocity2'
p1397
aS'adcps_jln_northward_seawater_velocity2'
p1398
aS'adcps_jln_upward_seawater_velocity2'
p1399
aS'error_velocity'
p1400
aS'water_velocity_east'
p1401
aS'water_velocity_north'
p1402
aS'water_velocity_up'
p1403
aS'adcps_jln_eastward_seawater_velocity2'
p1404
aS'adcps_jln_error_velocity2'
p1405
aS'adcps_jln_northward_seawater_velocity2'
p1406
aS'adcps_jln_upward_seawater_velocity2'
p1407
aS'error_velocity'
p1408
aS'water_velocity_east'
p1409
aS'water_velocity_north'
p1410
aS'water_velocity_up'
p1411
ag9
ag10
ag11
asS'parad_k__stc_imodem_instrument'
p1412
(lp1413
S'par_val_v'
p1414
aS'parad_k_par'
p1415
ag9
ag10
ag11
asS'velpt_j_cspp_instrument'
p1416
(lp1417
S'temperature'
p1418
aS'velpt_j_eastward_velocity'
p1419
aS'velpt_j_northward_velocity'
p1420
aS'velpt_j_upward_velocity'
p1421
ag9
ag10
ag11
asS'fdchp_a_instrument_recovered'
p1422
(lp1423
S'fdchp_a_fluxhot'
p1424
aS'fdchp_a_fluxmom_alongwind'
p1425
aS'fdchp_a_fluxmom_crosswind'
p1426
aS'fdchp_a_time_L1'
p1427
aS'fdchp_a_time_L2'
p1428
aS'fdchp_a_tmpatur'
p1429
aS'fdchp_a_windtur_north'
p1430
aS'fdchp_a_windtur_up'
p1431
aS'fdchp_a_windtur_west'
p1432
aS'fdchp_heading'
p1433
aS'fdchp_pitch'
p1434
aS'fdchp_roll'
p1435
aS'fdchp_speed_of_sound_sonic'
p1436
aS'fdchp_wind_x'
p1437
aS'fdchp_wind_y'
p1438
aS'fdchp_wind_z'
p1439
aS'fdchp_x_accel_g'
p1440
aS'fdchp_y_accel_g'
p1441
aS'fdchp_z_accel_g'
p1442
aS'x_ang_rate'
p1443
aS'y_ang_rate'
p1444
aS'z_ang_rate'
p1445
ag9
ag10
ag11
asS'dosta_abcdjm_sio_instrument_recovered'
p1446
(lp1447
S'calibrated_phase'
p1448
aS'dosta_abcdjm_cspp_tc_oxygen'
p1449
aS'dosta_abcdjm_sio_abs_oxygen'
p1450
aS'estimated_oxygen_concentration'
p1451
aS'estimated_oxygen_saturation'
p1452
ag9
ag10
ag11
asS'ctdgv_m_glider_instrument'
p1453
(lp1454
S'sci_seawater_density'
p1455
aS'sci_water_cond'
p1456
aS'sci_water_pracsal'
p1457
aS'sci_water_pressure'
p1458
aS'sci_water_temp'
p1459
ag9
ag10
ag11
asS'spkir_abj_cspp_instrument'
p1460
(lp1461
S'channel_array'
p1462
aS'spkir_abj_cspp_downwelling_vector'
p1463
ag9
ag10
ag11
asS'phsen_abcdef_dcl_instrument'
p1464
(lp1465
S'phsen_abcdef_ph_seawater'
p1466
aS'phsen_abcdef_signal_intensity_434'
p1467
aS'phsen_abcdef_signal_intensity_578'
p1468
aS'phsen_thermistor_temperature'
p1469
ag9
ag10
ag11
asS'dpc_acm_instrument'
p1470
(lp1471
S'vel3d_a_eastward_velocity'
p1472
aS'vel3d_a_northward_velocity'
p1473
aS'vel3d_a_upward_velocity_ascending'
p1474
aS'vel3d_a_upward_velocity_descending'
p1475
ag9
ag10
ag11
asS'wavss_a_dcl_motion_recovered'
p1476
(lp1477
S'east_offset_array'
p1478
aS'heave_offset_array'
p1479
aS'north_offset_array'
p1480
aS'wavss_a_buoymotion_time'
p1481
aS'wavss_a_magcor_buoymotion_x'
p1482
aS'wavss_a_magcor_buoymotion_y'
p1483
ag9
ag10
ag11
asS'ctdbp_cdef_instrument_recovered'
p1484
(lp1485
S'conductivity'
p1486
aS'ctdbp_practical_salinity'
p1487
aS'ctdbp_seawater_conductivity'
p1488
aS'ctdbp_seawater_density'
p1489
aS'ctdbp_seawater_pressure'
p1490
aS'ctdbp_seawater_temperature'
p1491
aS'pressure'
p1492
aS'pressure_temp'
p1493
aS'temperature'
p1494
ag9
ag10
ag11
asS'vel3d_l_wfp_instrument_recovered'
p1495
(lp1496
S'vel3d_l_eastward_velocity'
p1497
aS'vel3d_l_northward_velocity'
p1498
aS'vel3d_l_upward_velocity_ascending'
p1499
aS'vel3d_l_upward_velocity_descending'
p1500
ag9
ag10
ag11
asS'metbk_hourly'
p1501
(lp1502
S'met_buoyfls'
p1503
aS'met_buoyflx'
p1504
aS'met_frshflx'
p1505
aS'met_heatflx'
p1506
aS'met_latnflx'
p1507
aS'met_mommflx'
p1508
aS'met_netlirr'
p1509
aS'met_netsirr'
p1510
aS'met_rainflx'
p1511
aS'met_sensflx'
p1512
aS'met_sphum2m'
p1513
aS'met_stablty'
p1514
aS'met_tempa2m'
p1515
aS'met_tempskn'
p1516
aS'met_timeflx'
p1517
aS'met_wind10m'
p1518
ag9
ag10
ag11
asS'flord_m_glider_instrument_recovered'
p1519
(lp1520
S'flord_m_bback_total'
p1521
aS'sci_flbb_bb_sig'
p1522
aS'sci_flbb_bb_units'
p1523
aS'sci_flbb_chlor_sig'
p1524
aS'sci_flbb_chlor_units'
p1525
ag9
ag10
ag11
asS'pco2w_abc_imodem_instrument_recovered'
p1526
(lp1527
S'absorbance_ratio_434'
p1528
aS'absorbance_ratio_620'
p1529
aS'pco2_seawater'
p1530
aS'thermistor_raw'
p1531
ag9
ag10
ag11
asS'adcpt_acfgm_pd8_dcl_instrument'
p1532
(lp1533
S'adcps_pd12_eastward_seawater_velocity'
p1534
aS'adcps_pd12_northward_seawater_velocity'
p1535
aS'corrected_echo_intensity_beam1'
p1536
aS'corrected_echo_intensity_beam2'
p1537
aS'corrected_echo_intensity_beam3'
p1538
aS'corrected_echo_intensity_beam4'
p1539
aS'earth_error_velocity'
p1540
aS'echo_intensity_beam1'
p1541
aS'echo_intensity_beam2'
p1542
aS'echo_intensity_beam3'
p1543
aS'echo_intensity_beam4'
p1544
aS'error_velocity'
p1545
aS'temperature'
p1546
aS'upward_earth_seawater_velocity'
p1547
aS'water_velocity_east'
p1548
aS'water_velocity_north'
p1549
aS'water_velocity_up'
p1550
aS'adcps_pd12_eastward_seawater_velocity'
p1551
aS'adcps_pd12_northward_seawater_velocity'
p1552
aS'corrected_echo_intensity_beam1'
p1553
aS'corrected_echo_intensity_beam2'
p1554
aS'corrected_echo_intensity_beam3'
p1555
aS'corrected_echo_intensity_beam4'
p1556
aS'earth_error_velocity'
p1557
aS'echo_intensity_beam1'
p1558
aS'echo_intensity_beam2'
p1559
aS'echo_intensity_beam3'
p1560
aS'echo_intensity_beam4'
p1561
aS'error_velocity'
p1562
aS'temperature'
p1563
aS'upward_earth_seawater_velocity'
p1564
aS'water_velocity_east'
p1565
aS'water_velocity_north'
p1566
aS'water_velocity_up'
p1567
ag9
ag10
ag11
asS'pco2w_abc_instrument'
p1568
(lp1569
S'absorbance_ratio_434'
p1570
aS'absorbance_ratio_620'
p1571
aS'pco2_seawater'
p1572
aS'thermistor_raw'
p1573
ag9
ag10
ag11
asS'dosta_ln_wfp_instrument_recovered'
p1574
(lp1575
S'dosta_ln_wfp_abs_oxygen'
p1576
aS'estimated_oxygen_concentration'
p1577
aS'estimated_oxygen_saturation'
p1578
ag9
ag10
ag11
asS'phsen_data_record'
p1579
(lp1580
S'ph_seawater'
p1581
aS'phsen_thermistor_temperature'
p1582
aS'signal_intensity_434'
p1583
aS'signal_intensity_578'
p1584
aS'thermistor_end'
p1585
ag9
ag10
ag11
asS'prest_real_time'
p1586
(lp1587
S'absolute_pressure'
p1588
aS'seafloor_pressure'
p1589
ag9
ag10
ag11
asS'flort_m_glider_recovered'
p1590
(lp1591
S'flort_m_bback_total'
p1592
aS'sci_flbbcd_bb_units'
p1593
aS'sci_flbbcd_cdom_units'
p1594
aS'sci_flbbcd_chlor_units'
p1595
ag9
ag10
ag11
asS'velpt_ab_diagnostics_recovered'
p1596
(lp1597
S'eastward_velocity'
p1598
aS'northward_velocity'
p1599
aS'upward_velocity'
p1600
aS'velocity_beam1'
p1601
aS'velocity_beam2'
p1602
aS'velocity_beam3'
p1603
ag9
ag10
ag11
asS'flord_m_glider_instrument'
p1604
(lp1605
S'flord_m_bback_total'
p1606
aS'sci_flbb_bb_sig'
p1607
aS'sci_flbb_bb_units'
p1608
aS'sci_flbb_chlor_sig'
p1609
aS'sci_flbb_chlor_units'
p1610
ag9
ag10
ag11
asS'flort_m_glider_instrument'
p1611
(lp1612
S'flort_m_bback_total'
p1613
aS'sci_flbbcd_bb_units'
p1614
aS'sci_flbbcd_cdom_units'
p1615
aS'sci_flbbcd_chlor_units'
p1616
ag9
ag10
ag11
asS'dosta_abcdjm_sio_instrument'
p1617
(lp1618
S'calibrated_phase'
p1619
aS'dosta_abcdjm_cspp_tc_oxygen'
p1620
aS'dosta_abcdjm_sio_abs_oxygen'
p1621
aS'estimated_oxygen_concentration'
p1622
aS'estimated_oxygen_saturation'
p1623
ag9
ag10
ag11
asS'flord_l_wfp_instrument'
p1624
(lp1625
S'flort_k_total_volume_scattering_coefficient'
p1626
aS'flort_kn_bback_total'
p1627
aS'fluorometric_chlorophyll_a'
p1628
aS'raw_signal_beta'
p1629
aS'raw_signal_chl'
p1630
ag9
ag10
ag11
as.